target datalayout = "e-m:e-p270:32:32-p271:32:32-p272:64:64-i64:64-i128:128-f80:128-n8:16:32:64-S128"
target triple = "x86_64-pc-linux-gnu"

; Function Attrs: mustprogress nounwind uwtable
define noundef i32 @_ZN2cv11VideoWriter6fourccEcccc(i8 noundef signext %0, i8 noundef signext %1, i8 noundef signext %2, i8 noundef signext %3) #5 align 2 {
  %5 = alloca i8, align 1
  %6 = alloca i8, align 1
  %7 = alloca i8, align 1
  %8 = alloca i8, align 1
  store i8 %0, ptr %5, align 1, !tbaa !176
  store i8 %1, ptr %6, align 1, !tbaa !176
  store i8 %2, ptr %7, align 1, !tbaa !176
  store i8 %3, ptr %8, align 1, !tbaa !176
  %9 = load i8, ptr %5, align 1, !tbaa !176
  %10 = sext i8 %9 to i32
  %11 = and i32 %10, 255
  %12 = load i8, ptr %6, align 1, !tbaa !176
  %13 = sext i8 %12 to i32
  %14 = and i32 %13, 255
  %15 = shl i32 %14, 8
  %16 = add nsw i32 %11, %15
  %17 = load i8, ptr %7, align 1, !tbaa !176
  %18 = sext i8 %17 to i32
  %19 = and i32 %18, 255
  %20 = shl i32 %19, 16
  %21 = add nsw i32 %16, %20
  %22 = load i8, ptr %8, align 1, !tbaa !176
  %23 = sext i8 %22 to i32
  %24 = and i32 %23, 255
  %25 = shl i32 %24, 24
  %26 = add nsw i32 %21, %25
  ret i32 %26
}