; Function Attrs: mustprogress nofree norecurse nosync nounwind willreturn memory(none) uwtable
define noundef i32 @_ZN2cv11VideoWriter6fourccEcccc(i8 noundef signext %0, i8 noundef signext %1, i8 noundef signext %2, i8 noundef signext %3) local_unnamed_addr #4 align 2 {
  %5 = zext i8 %0 to i32
  %6 = zext i8 %1 to i32
  %7 = shl nuw nsw i32 %6, 8
  %8 = or disjoint i32 %7, %5
  %9 = zext i8 %2 to i32
  %10 = shl nuw nsw i32 %9, 16
  %11 = or disjoint i32 %8, %10
  %12 = zext i8 %3 to i32
  %13 = shl nuw i32 %12, 24
  %14 = or disjoint i32 %11, %13
  ret i32 %14
}